; Function Attrs: mustprogress uwtable
define noundef double @_ZNK8QuantLib36AnalyticHolderExtensibleOptionEngine2z1Ev(ptr noundef nonnull align 8 dereferenceable(376) %this) local_unnamed_addr #8 align 2 {
entry:
  %process_ = getelementptr inbounds nuw i8, ptr %this, i64 360
  %0 = load ptr, ptr %process_, align 8, !tbaa !39
  %cmp.not.i = icmp eq ptr %0, null
  br i1 %cmp.not.i, label %cond.false.i, label %_ZNK5boost10shared_ptrIN8QuantLib30GeneralizedBlackScholesProcessEEptEv.exit, !prof !46

cond.false.i:                                     ; preds = %entry
  tail call void @_ZN5boost16assertion_failedEPKcS1_S1_l(ptr noundef nonnull @.str.14, ptr noundef nonnull @__PRETTY_FUNCTION__._ZNK5boost10shared_ptrIN8QuantLib30GeneralizedBlackScholesProcessEEptEv, ptr noundef nonnull @.str.15, i64 noundef 784)
  %.pre.i = load ptr, ptr %process_, align 8, !tbaa !39
  br label %_ZNK5boost10shared_ptrIN8QuantLib30GeneralizedBlackScholesProcessEEptEv.exit

_ZNK5boost10shared_ptrIN8QuantLib30GeneralizedBlackScholesProcessEEptEv.exit: ; preds = %entry, %cond.false.i
  %1 = phi ptr [ %0, %entry ], [ %.pre.i, %cond.false.i ]
  %vtable = load ptr, ptr %1, align 8, !tbaa !35
  %vfn = getelementptr inbounds i8, ptr %vtable, i64 120
  %2 = load ptr, ptr %vfn, align 8
  %call2 = tail call noundef double %2(ptr noundef nonnull align 8 dereferenceable(250) %1)
  %secondStrike = getelementptr inbounds nuw i8, ptr %this, i64 168
  %3 = load double, ptr %secondStrike, align 8, !tbaa !49
  %call3 = tail call noundef double @_ZNK8QuantLib36AnalyticHolderExtensibleOptionEngine12riskFreeRateEv(ptr noundef nonnull align 8 dereferenceable(376) %this)
  %call4 = tail call noundef double @_ZNK8QuantLib36AnalyticHolderExtensibleOptionEngine13dividendYieldEv(ptr noundef nonnull align 8 dereferenceable(376) %this)
  %call5 = tail call noundef double @_ZNK8QuantLib36AnalyticHolderExtensibleOptionEngine10volatilityEv(ptr noundef nonnull align 8 dereferenceable(376) %this)
  %4 = load ptr, ptr %process_, align 8, !tbaa !39
  %cmp.not.i.i = icmp eq ptr %4, null
  br i1 %cmp.not.i.i, label %cond.false.i.i, label %_ZNK8QuantLib36AnalyticHolderExtensibleOptionEngine16secondExpiryTimeEv.exit, !prof !46

cond.false.i.i:                                   ; preds = %_ZNK5boost10shared_ptrIN8QuantLib30GeneralizedBlackScholesProcessEEptEv.exit
  tail call void @_ZN5boost16assertion_failedEPKcS1_S1_l(ptr noundef nonnull @.str.14, ptr noundef nonnull @__PRETTY_FUNCTION__._ZNK5boost10shared_ptrIN8QuantLib30GeneralizedBlackScholesProcessEEptEv, ptr noundef nonnull @.str.15, i64 noundef 784)
  %.pre.i.i = load ptr, ptr %process_, align 8, !tbaa !39
  br label %_ZNK8QuantLib36AnalyticHolderExtensibleOptionEngine16secondExpiryTimeEv.exit

_ZNK8QuantLib36AnalyticHolderExtensibleOptionEngine16secondExpiryTimeEv.exit: ; preds = %_ZNK5boost10shared_ptrIN8QuantLib30GeneralizedBlackScholesProcessEEptEv.exit, %cond.false.i.i
  %5 = phi ptr [ %4, %_ZNK5boost10shared_ptrIN8QuantLib30GeneralizedBlackScholesProcessEEptEv.exit ], [ %.pre.i.i, %cond.false.i.i ]
  %sub = fsub double %call3, %call4
  %secondExpiryDate.i = getelementptr inbounds nuw i8, ptr %this, i64 160
  %vtable.i = load ptr, ptr %5, align 8, !tbaa !35
  %vfn.i = getelementptr inbounds i8, ptr %vtable.i, i64 112
  %6 = load ptr, ptr %vfn.i, align 8
  %call2.i = tail call noundef double %6(ptr noundef nonnull align 8 dereferenceable(250) %5, ptr noundef nonnull align 8 dereferenceable(8) %secondExpiryDate.i)
  %div = fdiv double %call2, %3
  %call7 = tail call double @log(double noundef %div) #26, !tbaa !75
  %square = fmul double %call5, %call5
  %div9 = fmul double %square, 5.000000e-01
  %add = fadd double %sub, %div9
  %7 = tail call double @llvm.fmuladd.f64(double %add, double %call2.i, double %call7)
  %call10 = tail call double @sqrt(double noundef %call2.i) #26, !tbaa !75
  %mul = fmul double %call5, %call10
  %div11 = fdiv double %7, %mul
  ret double %div11
}